target datalayout = "e-m:e-p270:32:32-p271:32:32-p272:64:64-i64:64-i128:128-f80:128-n8:16:32:64-S128"
target triple = "x86_64-pc-linux-gnu"

%union.pthread_mutex_t = type { %struct.__pthread_mutex_s }
%struct.__pthread_mutex_s = type { i32, i32, i32, i32, i32, i16, i16, %struct.__pthread_internal_list }
%struct.__pthread_internal_list = type { ptr, ptr }
%struct._GC_arrays = type { i64, i64, i64, ptr, i64, i64, i64, i64, i64, i64, i64, i64, i64, i64, ptr, ptr, ptr, ptr, ptr, ptr, ptr, ptr, i32, i32, i32, i64, i64, i64, i64, i64, ptr, ptr, ptr, i64, i64, i32, i64, i64, ptr, i64, %struct.dl_hashtbl_s, %struct.dl_hashtbl_s, %struct.fnlz_roots_s, i32, ptr, i64, i64, i32, i32, i64, i64, i64, ptr, [64 x ptr], [8 x i8], [64 x ptr], [129 x ptr], [129 x ptr], [129 x ptr], [129 x ptr], [2049 x i64], [129 x ptr], [4096 x i8], [4096 x i64], [4096 x i64], ptr, [2048 x %struct.roots], [512 x %struct.exclusion], [2048 x ptr] }
%struct.dl_hashtbl_s = type { ptr, i64, i32 }
%struct.fnlz_roots_s = type { ptr, ptr }
%struct.roots = type { ptr, ptr, ptr, i32 }
%struct.exclusion = type { ptr, ptr }

@GC_need_to_lock = internal global i32 0, align 4
@GC_allocate_ml = internal global %union.pthread_mutex_t zeroinitializer, align 8
@GC_arrays = global %struct._GC_arrays zeroinitializer, align 8
@GC_on_abort = global ptr @GC_default_on_abort, align 8
@GC_debugging_started = internal global i32 0, align 4
@GC_is_initialized = internal global i32 0, align 4
@GC_default_stop_func = internal global ptr @GC_never_stop_func, align 8
@GC_collecting = internal global i8 0, align 1
@GC_print_all_smashed = internal global ptr null, align 8
@GC_unmap_threshold = internal global i32 7, align 4
@GC_force_unmap_on_gcollect = internal global i32 0, align 4
@GC_heapsize_at_forced_unmap = internal global i64 0, align 8
@GC_nprocs = internal global i32 1, align 4
@.str.340 = private unnamed_addr constant [44 x i8] c"Unexpected error from pthread_mutex_trylock\00", align 1

; Function Attrs: nounwind uwtable
define internal void @GC_pause() #0 {
  %1 = alloca i32, align 4
  store i32 0, ptr %1, align 4
  br label %2

2:                                                ; preds = %6, %0
  %3 = load i32, ptr %1, align 4
  %4 = icmp slt i32 %3, 10
  br i1 %4, label %5, label %9

5:                                                ; preds = %2
  fence syncscope("singlethread") seq_cst
  br label %6

6:                                                ; preds = %5
  %7 = load i32, ptr %1, align 4
  %8 = add nsw i32 %7, 1
  store i32 %8, ptr %1, align 4
  br label %2, !llvm.loop !262

9:                                                ; preds = %2
  ret void
}

; Function Attrs: nounwind uwtable
define internal void @GC_generic_lock(ptr noundef %0) #0 {
  %2 = alloca ptr, align 8
  %3 = alloca i32, align 4
  %4 = alloca i32, align 4
  store ptr %0, ptr %2, align 8
  store i32 1, ptr %3, align 4
  %5 = load ptr, ptr %2, align 8
  %6 = call i32 @pthread_mutex_trylock(ptr noundef %5) #18
  %7 = icmp eq i32 0, %6
  %8 = zext i1 %7 to i32
  %9 = sext i32 %8 to i64
  %10 = icmp ne i64 %9, 0
  br i1 %10, label %11, label %12

11:                                               ; preds = %1
  br label %39

12:                                               ; preds = %1
  br label %13

13:                                               ; preds = %33, %12
  %14 = load i32, ptr %3, align 4
  %15 = icmp ule i32 %14, 128
  br i1 %15, label %16, label %36

16:                                               ; preds = %13
  store i32 0, ptr %4, align 4
  br label %17

17:                                               ; preds = %22, %16
  %18 = load i32, ptr %4, align 4
  %19 = load i32, ptr %3, align 4
  %20 = icmp ult i32 %18, %19
  br i1 %20, label %21, label %25

21:                                               ; preds = %17
  call void @GC_pause()
  br label %22

22:                                               ; preds = %21
  %23 = load i32, ptr %4, align 4
  %24 = add i32 %23, 1
  store i32 %24, ptr %4, align 4
  br label %17, !llvm.loop !260

25:                                               ; preds = %17
  %26 = load ptr, ptr %2, align 8
  %27 = call i32 @pthread_mutex_trylock(ptr noundef %26) #18
  switch i32 %27, label %30 [
    i32 0, label %28
    i32 16, label %29
  ]

28:                                               ; preds = %25
  br label %39

29:                                               ; preds = %25
  br label %32

30:                                               ; preds = %25
  %31 = load ptr, ptr @GC_on_abort, align 8
  call void %31(ptr noundef @.str.340)
  call void @abort() #20
  unreachable

32:                                               ; preds = %29
  br label %33

33:                                               ; preds = %32
  %34 = load i32, ptr %3, align 4
  %35 = shl i32 %34, 1
  store i32 %35, ptr %3, align 4
  br label %13, !llvm.loop !261

36:                                               ; preds = %13
  %37 = load ptr, ptr %2, align 8
  %38 = call i32 @pthread_mutex_lock(ptr noundef %37) #18
  br label %39

39:                                               ; preds = %36, %28, %11
  ret void
}

; Function Attrs: nounwind uwtable
define hidden void @GC_noop6(i64 noundef %0, i64 noundef %1, i64 noundef %2, i64 noundef %3, i64 noundef %4, i64 noundef %5) #0 {
  %7 = alloca i64, align 8
  %8 = alloca i64, align 8
  %9 = alloca i64, align 8
  %10 = alloca i64, align 8
  %11 = alloca i64, align 8
  %12 = alloca i64, align 8
  store i64 %0, ptr %7, align 8
  store i64 %1, ptr %8, align 8
  store i64 %2, ptr %9, align 8
  store i64 %3, ptr %10, align 8
  store i64 %4, ptr %11, align 8
  store i64 %5, ptr %12, align 8
  fence syncscope("singlethread") seq_cst
  ret void
}

; Function Attrs: nounwind uwtable
define internal void @GC_lock() #0 {
  %1 = alloca i8, align 1
  %2 = load i32, ptr @GC_nprocs, align 4
  %3 = icmp eq i32 1, %2
  br i1 %3, label %9, label %4

4:                                                ; preds = %0
  %5 = load atomic volatile i8, ptr @GC_collecting monotonic, align 1
  store i8 %5, ptr %1, align 1
  %6 = load i8, ptr %1, align 1
  %7 = zext i8 %6 to i32
  %8 = icmp ne i32 %7, 0
  br i1 %8, label %9, label %11

9:                                                ; preds = %4, %0
  %10 = call i32 @pthread_mutex_lock(ptr noundef @GC_allocate_ml) #18
  br label %12

11:                                               ; preds = %4
  call void @GC_generic_lock(ptr noundef @GC_allocate_ml)
  br label %12

12:                                               ; preds = %11, %9
  ret void
}

; Function Attrs: nounwind uwtable
define internal i32 @GC_try_to_collect_general(ptr noundef %0, i32 noundef %1) #0 {
  %3 = alloca ptr, align 8
  %4 = alloca i32, align 4
  %5 = alloca i32, align 4
  %6 = alloca i32, align 4
  %7 = alloca i32, align 4
  %8 = alloca i8, align 1
  %9 = alloca i8, align 1
  store ptr %0, ptr %3, align 8
  store i32 %1, ptr %4, align 4
  %10 = load i32, ptr @GC_is_initialized, align 4
  %11 = sext i32 %10 to i64
  %12 = icmp ne i64 %11, 0
  br i1 %12, label %14, label %13

13:                                               ; preds = %2
  call void @GC_init()
  br label %14

14:                                               ; preds = %13, %2
  %15 = load i32, ptr @GC_debugging_started, align 4
  %16 = icmp ne i32 %15, 0
  br i1 %16, label %17, label %19

17:                                               ; preds = %14
  %18 = load ptr, ptr @GC_print_all_smashed, align 8
  call void %18()
  br label %19

19:                                               ; preds = %17, %14
  call void @GC_notify_or_invoke_finalizers()
  br label %20

20:                                               ; preds = %19
  %21 = load i32, ptr @GC_need_to_lock, align 4
  %22 = icmp ne i32 %21, 0
  br i1 %22, label %23, label %28

23:                                               ; preds = %20
  %24 = call i32 @pthread_mutex_trylock(ptr noundef @GC_allocate_ml) #18
  %25 = icmp ne i32 0, %24
  br i1 %25, label %26, label %27

26:                                               ; preds = %23
  call void @GC_lock()
  br label %27

27:                                               ; preds = %26, %23
  br label %28

28:                                               ; preds = %27, %20
  br label %29

29:                                               ; preds = %28
  %30 = load i32, ptr %4, align 4
  %31 = icmp ne i32 %30, 0
  br i1 %31, label %32, label %34

32:                                               ; preds = %29
  %33 = load i64, ptr @GC_arrays, align 8
  store i64 %33, ptr @GC_heapsize_at_forced_unmap, align 8
  br label %34

34:                                               ; preds = %32, %29
  br label %35

35:                                               ; preds = %34
  %36 = call i32 @pthread_setcancelstate(i32 noundef 1, ptr noundef %7)
  br label %37

37:                                               ; preds = %35
  %38 = load i32, ptr @GC_unmap_threshold, align 4
  store i32 %38, ptr %6, align 4
  %39 = load i32, ptr %4, align 4
  %40 = icmp ne i32 %39, 0
  br i1 %40, label %47, label %41

41:                                               ; preds = %37
  %42 = load i32, ptr @GC_force_unmap_on_gcollect, align 4
  %43 = icmp ne i32 %42, 0
  br i1 %43, label %44, label %48

44:                                               ; preds = %41
  %45 = load i32, ptr %6, align 4
  %46 = icmp ugt i32 %45, 0
  br i1 %46, label %47, label %48

47:                                               ; preds = %44, %37
  store i32 1, ptr @GC_unmap_threshold, align 4
  br label %48

48:                                               ; preds = %47, %44, %41
  store i8 1, ptr %8, align 1
  %49 = load i8, ptr %8, align 1
  store atomic volatile i8 %49, ptr @GC_collecting monotonic, align 1
  call void @GC_noop6(i64 noundef 0, i64 noundef 0, i64 noundef 0, i64 noundef 0, i64 noundef 0, i64 noundef 0)
  %50 = load ptr, ptr %3, align 8
  %51 = icmp ne ptr %50, null
  br i1 %51, label %52, label %54

52:                                               ; preds = %48
  %53 = load ptr, ptr %3, align 8
  br label %56

54:                                               ; preds = %48
  %55 = load ptr, ptr @GC_default_stop_func, align 8
  br label %56

56:                                               ; preds = %54, %52
  %57 = phi ptr [ %53, %52 ], [ %55, %54 ]
  %58 = call i32 @GC_try_to_collect_inner(ptr noundef %57)
  store i32 %58, ptr %5, align 4
  store i8 0, ptr %9, align 1
  %59 = load i8, ptr %9, align 1
  store atomic volatile i8 %59, ptr @GC_collecting monotonic, align 1
  %60 = load i32, ptr %6, align 4
  store i32 %60, ptr @GC_unmap_threshold, align 4
  br label %61

61:                                               ; preds = %56
  %62 = load i32, ptr %7, align 4
  %63 = call i32 @pthread_setcancelstate(i32 noundef %62, ptr noundef null)
  br label %64

64:                                               ; preds = %61
  br label %65

65:                                               ; preds = %64
  %66 = load i32, ptr @GC_need_to_lock, align 4
  %67 = icmp ne i32 %66, 0
  br i1 %67, label %68, label %70

68:                                               ; preds = %65
  %69 = call i32 @pthread_mutex_unlock(ptr noundef @GC_allocate_ml) #18
  br label %70

70:                                               ; preds = %68, %65
  br label %71

71:                                               ; preds = %70
  %72 = load i32, ptr %5, align 4
  %73 = icmp ne i32 %72, 0
  br i1 %73, label %74, label %80

74:                                               ; preds = %71
  %75 = load i32, ptr @GC_debugging_started, align 4
  %76 = icmp ne i32 %75, 0
  br i1 %76, label %77, label %79

77:                                               ; preds = %74
  %78 = load ptr, ptr @GC_print_all_smashed, align 8
  call void %78()
  br label %79

79:                                               ; preds = %77, %74
  call void @GC_notify_or_invoke_finalizers()
  br label %80

80:                                               ; preds = %79, %71
  %81 = load i32, ptr %5, align 4
  ret i32 %81
}