; Function Attrs: nounwind uwtable
define internal fastcc range(i32 0, 2) i32 @GC_try_to_collect_general(ptr noundef %0, i32 noundef range(i32 0, 2) %1) unnamed_addr #1 {
  %3 = alloca i32, align 4
  %.b13 = load i1, ptr @GC_is_initialized, align 4
  br i1 %.b13, label %5, label %4

4:                                                ; preds = %2
  tail call void @GC_init()
  br label %5

5:                                                ; preds = %4, %2
  %.b12 = load i1, ptr @GC_debugging_started, align 4
  br i1 %.b12, label %6, label %7

6:                                                ; preds = %5
  tail call fastcc void @GC_print_all_smashed_proc(), !callees !29
  br label %7

7:                                                ; preds = %6, %5
  tail call fastcc void @GC_notify_or_invoke_finalizers()
  %.b10 = load i1, ptr @GC_need_to_lock, align 4
  br i1 %.b10, label %8, label %GC_lock.exit

8:                                                ; preds = %7
  %9 = tail call i32 @pthread_mutex_trylock(ptr noundef nonnull @GC_allocate_ml) #41
  %.not = icmp eq i32 %9, 0
  br i1 %.not, label %GC_lock.exit, label %10

10:                                               ; preds = %8
  %11 = load i32, ptr @GC_nprocs, align 4
  %12 = icmp eq i32 %11, 1
  br i1 %12, label %GC_generic_lock.exit.sink.split.i, label %13

13:                                               ; preds = %10
  %14 = load atomic volatile i8, ptr @GC_collecting monotonic, align 1
  %.not.i = icmp eq i8 %14, 0
  br i1 %.not.i, label %15, label %GC_generic_lock.exit.sink.split.i

15:                                               ; preds = %13
  %16 = tail call i32 @pthread_mutex_trylock(ptr noundef nonnull @GC_allocate_ml) #41
  %17 = icmp eq i32 %16, 0
  br i1 %17, label %GC_lock.exit, label %.preheader.i.i

.preheader.i.i:                                   ; preds = %15, %21
  %.079.i.i = phi i32 [ %22, %21 ], [ 1, %15 ]
  fence syncscope("singlethread") seq_cst
  %18 = tail call i32 @pthread_mutex_trylock(ptr noundef nonnull @GC_allocate_ml) #41
  switch i32 %18, label %19 [
    i32 0, label %GC_lock.exit
    i32 16, label %21
  ]

19:                                               ; preds = %.preheader.i.i
  %20 = load ptr, ptr @GC_on_abort, align 8
  tail call void %20(ptr noundef nonnull @.str.340) #41
  tail call void @abort() #47
  unreachable

21:                                               ; preds = %.preheader.i.i
  %22 = shl nuw nsw i32 %.079.i.i, 1
  %23 = icmp samesign ult i32 %.079.i.i, 65
  br i1 %23, label %.preheader.i.i, label %GC_generic_lock.exit.sink.split.i, !llvm.loop !4

GC_generic_lock.exit.sink.split.i:                ; preds = %21, %13, %10
  %24 = tail call i32 @pthread_mutex_lock(ptr noundef nonnull @GC_allocate_ml) #41
  br label %GC_lock.exit

GC_lock.exit:                                     ; preds = %.preheader.i.i, %GC_generic_lock.exit.sink.split.i, %15, %7, %8
  %.not14 = icmp eq i32 %1, 0
  br i1 %.not14, label %29, label %25

25:                                               ; preds = %GC_lock.exit
  %26 = load i64, ptr @GC_arrays, align 8
  store i64 %26, ptr @GC_heapsize_at_forced_unmap, align 8
  %27 = call i32 @pthread_setcancelstate(i32 noundef 1, ptr noundef nonnull %3) #41
  %28 = load i32, ptr @GC_unmap_threshold, align 4
  br label %35

29:                                               ; preds = %GC_lock.exit
  %30 = call i32 @pthread_setcancelstate(i32 noundef 1, ptr noundef nonnull %3) #41
  %31 = load i32, ptr @GC_unmap_threshold, align 4
  %32 = load i32, ptr @GC_force_unmap_on_gcollect, align 4
  %33 = icmp ne i32 %32, 0
  %34 = icmp ne i32 %31, 0
  %or.cond = select i1 %33, i1 %34, i1 false
  br i1 %or.cond, label %35, label %37

35:                                               ; preds = %25, %29
  %36 = phi i32 [ %31, %29 ], [ %28, %25 ]
  store i32 1, ptr @GC_unmap_threshold, align 4
  br label %37

37:                                               ; preds = %35, %29
  %38 = phi i32 [ %36, %35 ], [ %31, %29 ]
  store atomic volatile i8 1, ptr @GC_collecting monotonic, align 1
  fence syncscope("singlethread") seq_cst
  %.not15 = icmp eq ptr %0, null
  %39 = load ptr, ptr @GC_default_stop_func, align 8
  %40 = select i1 %.not15, ptr %39, ptr %0
  %41 = call fastcc i32 @GC_try_to_collect_inner(ptr noundef %40)
  store atomic volatile i8 0, ptr @GC_collecting monotonic, align 1
  store i32 %38, ptr @GC_unmap_threshold, align 4
  %42 = load i32, ptr %3, align 4
  %43 = call i32 @pthread_setcancelstate(i32 noundef %42, ptr noundef null) #41
  %.b = load i1, ptr @GC_need_to_lock, align 4
  br i1 %.b, label %44, label %46

44:                                               ; preds = %37
  %45 = call i32 @pthread_mutex_unlock(ptr noundef nonnull @GC_allocate_ml) #41
  br label %46

46:                                               ; preds = %37, %44
  %.not16 = icmp eq i32 %41, 0
  br i1 %.not16, label %50, label %47

47:                                               ; preds = %46
  %.b11 = load i1, ptr @GC_debugging_started, align 4
  br i1 %.b11, label %48, label %49

48:                                               ; preds = %47
  call fastcc void @GC_print_all_smashed_proc(), !callees !29
  br label %49

49:                                               ; preds = %48, %47
  call fastcc void @GC_notify_or_invoke_finalizers()
  br label %50

50:                                               ; preds = %49, %46
  ret i32 %41
}